; ModuleID = '12/1008.c'
source_filename = "12/1008.c"
target datalayout = "e-m:e-p270:32:32-p271:32:32-p272:64:64-i64:64-f80:128-n8:16:32:64-S128"
target triple = "x86_64-pc-linux-gnu"

@.str = private unnamed_addr constant [3 x i8] c"%f\00", align 1
@.str.1 = private unnamed_addr constant [4 x i8] c"%d\0A\00", align 1

; Function Attrs: noinline nounwind uwtable
define dso_local i32 @main() #0 {
  %1 = alloca i32, align 4
  %2 = alloca [16 x float], align 16
  %3 = alloca [100 x i32], align 16
  %4 = alloca i32, align 4
  %5 = alloca i32, align 4
  %6 = alloca i32, align 4
  %7 = alloca i32, align 4
  store i32 0, i32* %1, align 4
  store i32 0, i32* %4, align 4
  br label %8

8:                                                ; preds = %92, %0
  %9 = load i32, i32* %4, align 4
  %10 = icmp sge i32 %9, 0
  br i1 %10, label %11, label %95

11:                                               ; preds = %8
  %12 = load i32, i32* %4, align 4
  %13 = sext i32 %12 to i64
  %14 = getelementptr inbounds [100 x i32], [100 x i32]* %3, i64 0, i64 %13
  store i32 0, i32* %14, align 4
  store i32 0, i32* %5, align 4
  br label %15

15:                                               ; preds = %34, %11
  %16 = load i32, i32* %5, align 4
  %17 = icmp slt i32 %16, 16
  br i1 %17, label %18, label %37

18:                                               ; preds = %15
  %19 = load i32, i32* %5, align 4
  %20 = sext i32 %19 to i64
  %21 = getelementptr inbounds [16 x float], [16 x float]* %2, i64 0, i64 %20
  %22 = call i32 (i8*, ...) @__isoc99_scanf(i8* getelementptr inbounds ([3 x i8], [3 x i8]* @.str, i64 0, i64 0), float* %21)
  %23 = load i32, i32* %5, align 4
  %24 = sext i32 %23 to i64
  %25 = getelementptr inbounds [16 x float], [16 x float]* %2, i64 0, i64 %24
  %26 = load float, float* %25, align 4
  %27 = fcmp oeq float %26, 0.000000e+00
  br i1 %27, label %32, label %28

28:                                               ; preds = %18
  %29 = getelementptr inbounds [16 x float], [16 x float]* %2, i64 0, i64 0
  %30 = load float, float* %29, align 16
  %31 = fcmp oeq float %30, -1.000000e+00
  br i1 %31, label %32, label %33

32:                                               ; preds = %28, %18
  br label %37

33:                                               ; preds = %28
  br label %34

34:                                               ; preds = %33
  %35 = load i32, i32* %5, align 4
  %36 = add nsw i32 %35, 1
  store i32 %36, i32* %5, align 4
  br label %15

37:                                               ; preds = %32, %15
  store i32 0, i32* %6, align 4
  br label %38

38:                                               ; preds = %83, %37
  %39 = load i32, i32* %6, align 4
  %40 = load i32, i32* %5, align 4
  %41 = sub nsw i32 %40, 1
  %42 = icmp slt i32 %39, %41
  br i1 %42, label %43, label %86

43:                                               ; preds = %38
  %44 = load i32, i32* %6, align 4
  %45 = add nsw i32 %44, 1
  store i32 %45, i32* %7, align 4
  br label %46

46:                                               ; preds = %79, %43
  %47 = load i32, i32* %7, align 4
  %48 = load i32, i32* %5, align 4
  %49 = icmp slt i32 %47, %48
  br i1 %49, label %50, label %82

50:                                               ; preds = %46
  %51 = load i32, i32* %6, align 4
  %52 = sext i32 %51 to i64
  %53 = getelementptr inbounds [16 x float], [16 x float]* %2, i64 0, i64 %52
  %54 = load float, float* %53, align 4
  %55 = load i32, i32* %7, align 4
  %56 = sext i32 %55 to i64
  %57 = getelementptr inbounds [16 x float], [16 x float]* %2, i64 0, i64 %56
  %58 = load float, float* %57, align 4
  %59 = fmul float %58, 2.000000e+00
  %60 = fcmp oeq float %54, %59
  br i1 %60, label %72, label %61

61:                                               ; preds = %50
  %62 = load i32, i32* %6, align 4
  %63 = sext i32 %62 to i64
  %64 = getelementptr inbounds [16 x float], [16 x float]* %2, i64 0, i64 %63
  %65 = load float, float* %64, align 4
  %66 = load i32, i32* %7, align 4
  %67 = sext i32 %66 to i64
  %68 = getelementptr inbounds [16 x float], [16 x float]* %2, i64 0, i64 %67
  %69 = load float, float* %68, align 4
  %70 = fdiv float %69, 2.000000e+00
  %71 = fcmp oeq float %65, %70
  br i1 %71, label %72, label %78

72:                                               ; preds = %61, %50
  %73 = load i32, i32* %4, align 4
  %74 = sext i32 %73 to i64
  %75 = getelementptr inbounds [100 x i32], [100 x i32]* %3, i64 0, i64 %74
  %76 = load i32, i32* %75, align 4
  %77 = add nsw i32 %76, 1
  store i32 %77, i32* %75, align 4
  br label %78

78:                                               ; preds = %72, %61
  br label %79

79:                                               ; preds = %78
  %80 = load i32, i32* %7, align 4
  %81 = add nsw i32 %80, 1
  store i32 %81, i32* %7, align 4
  br label %46

82:                                               ; preds = %46
  br label %83

83:                                               ; preds = %82
  %84 = load i32, i32* %6, align 4
  %85 = add nsw i32 %84, 1
  store i32 %85, i32* %6, align 4
  br label %38

86:                                               ; preds = %38
  %87 = getelementptr inbounds [16 x float], [16 x float]* %2, i64 0, i64 0
  %88 = load float, float* %87, align 16
  %89 = fcmp oeq float %88, -1.000000e+00
  br i1 %89, label %90, label %91

90:                                               ; preds = %86
  br label %95

91:                                               ; preds = %86
  br label %92

92:                                               ; preds = %91
  %93 = load i32, i32* %4, align 4
  %94 = add nsw i32 %93, 1
  store i32 %94, i32* %4, align 4
  br label %8

95:                                               ; preds = %90, %8
  store i32 0, i32* %5, align 4
  br label %96

96:                                               ; preds = %106, %95
  %97 = load i32, i32* %5, align 4
  %98 = load i32, i32* %4, align 4
  %99 = icmp slt i32 %97, %98
  br i1 %99, label %100, label %109

100:                                              ; preds = %96
  %101 = load i32, i32* %5, align 4
  %102 = sext i32 %101 to i64
  %103 = getelementptr inbounds [100 x i32], [100 x i32]* %3, i64 0, i64 %102
  %104 = load i32, i32* %103, align 4
  %105 = call i32 (i8*, ...) @printf(i8* getelementptr inbounds ([4 x i8], [4 x i8]* @.str.1, i64 0, i64 0), i32 %104)
  br label %106

106:                                              ; preds = %100
  %107 = load i32, i32* %5, align 4
  %108 = add nsw i32 %107, 1
  store i32 %108, i32* %5, align 4
  br label %96

109:                                              ; preds = %96
  ret i32 0
}

declare dso_local i32 @__isoc99_scanf(i8*, ...) #1

declare dso_local i32 @printf(i8*, ...) #1


!llvm.module.flags = !{!0}
!llvm.ident = !{!1}

!0 = !{i32 1, !"wchar_size", i32 4}
!1 = !{!"clang version 10.0.0-4ubuntu1 "}
